; Function Attrs: mustprogress uwtable
define hidden noundef zeroext i1 @_ZN3smt10theory_seq20branch_quat_variableEv(ptr noundef nonnull align 8 dereferenceable(4328) %0) local_unnamed_addr #4 align 2 {
  %2 = getelementptr inbounds nuw i8, ptr %0, i64 240
  %3 = load i32, ptr %2, align 8, !tbaa !22
  %.not18.not = icmp eq i32 %3, 0
  br i1 %.not18.not, label %._crit_edge, label %.lr.ph

.lr.ph:                                           ; preds = %1
  %4 = getelementptr inbounds nuw i8, ptr %0, i64 256
  %5 = getelementptr inbounds nuw i8, ptr %0, i64 272
  %6 = zext i32 %3 to i64
  br label %7

7:                                                ; preds = %7, %.lr.ph
  %indvars.iv = phi i64 [ 0, %.lr.ph ], [ %indvars.iv.next, %7 ]
  %8 = load ptr, ptr %5, align 8, !tbaa !194
  %9 = getelementptr inbounds nuw i32, ptr %8, i64 %indvars.iv
  %10 = load i32, ptr %9, align 4, !tbaa !195
  %11 = load ptr, ptr %4, align 8, !tbaa !196
  %12 = zext i32 %10 to i64
  %13 = getelementptr inbounds nuw %"class.smt::theory_seq::depeq", ptr %11, i64 %12
  %14 = tail call noundef zeroext i1 @_ZN3smt10theory_seq20branch_quat_variableERKNS0_5depeqE(ptr noundef nonnull align 8 dereferenceable(4328) %0, ptr noundef nonnull align 8 dereferenceable(48) %13)
  %indvars.iv.next = add nuw nsw i64 %indvars.iv, 1
  %.not.not = icmp eq i64 %indvars.iv.next, %6
  %or.cond = select i1 %14, i1 true, i1 %.not.not
  br i1 %or.cond, label %._crit_edge, label %7

._crit_edge:                                      ; preds = %7, %1
  %.not.lcssa = phi i1 [ false, %1 ], [ %14, %7 ]
  ret i1 %.not.lcssa
}